target datalayout = "e-m:e-p270:32:32-p271:32:32-p272:64:64-i64:64-i128:128-f80:128-n8:16:32:64-S128"
target triple = "x86_64-pc-linux-gnu"

%struct.PaUtilHostApiRepresentation = type { %struct.PaUtilPrivatePaFrontHostApiInfo, %struct.PaHostApiInfo, ptr, ptr, ptr, ptr }
%struct.PaUtilPrivatePaFrontHostApiInfo = type { i64 }
%struct.PaHostApiInfo = type { i32, i32, ptr, i32, i32, i32 }
%struct.PaStreamParameters = type { i32, i32, i64, double, ptr }

@initializationCount_ = internal global i32 0, align 4

; Function Attrs: nounwind uwtable
define i32 @Pa_IsFormatSupported(ptr noundef %0, ptr noundef %1, double noundef %2) #0 {
  %4 = alloca i32, align 4
  %5 = alloca ptr, align 8
  %6 = alloca ptr, align 8
  %7 = alloca double, align 8
  %8 = alloca i32, align 4
  %9 = alloca ptr, align 8
  %10 = alloca i32, align 4
  %11 = alloca i32, align 4
  %12 = alloca %struct.PaStreamParameters, align 8
  %13 = alloca %struct.PaStreamParameters, align 8
  %14 = alloca ptr, align 8
  %15 = alloca ptr, align 8
  store ptr %0, ptr %5, align 8
  store ptr %1, ptr %6, align 8
  store double %2, ptr %7, align 8
  store ptr null, ptr %9, align 8
  store i32 -1, ptr %10, align 4
  store i32 -1, ptr %11, align 4
  %16 = load i32, ptr @initializationCount_, align 4
  %17 = icmp ne i32 %16, 0
  br i1 %17, label %20, label %18

18:                                               ; preds = %3
  store i32 -10000, ptr %8, align 4
  %19 = load i32, ptr %8, align 4
  store i32 %19, ptr %4, align 4
  br label %85

20:                                               ; preds = %3
  %21 = load ptr, ptr %5, align 8
  %22 = load ptr, ptr %6, align 8
  %23 = load double, ptr %7, align 8
  %24 = call i32 @ValidateOpenStreamParameters(ptr noundef %21, ptr noundef %22, double noundef %23, i64 noundef 0, i64 noundef 0, ptr noundef null, ptr noundef %9, ptr noundef %10, ptr noundef %11)
  store i32 %24, ptr %8, align 4
  %25 = load i32, ptr %8, align 4
  %26 = icmp ne i32 %25, 0
  br i1 %26, label %27, label %29

27:                                               ; preds = %20
  %28 = load i32, ptr %8, align 4
  store i32 %28, ptr %4, align 4
  br label %85

29:                                               ; preds = %20
  %30 = load ptr, ptr %5, align 8
  %31 = icmp ne ptr %30, null
  br i1 %31, label %32, label %51

32:                                               ; preds = %29
  %33 = load i32, ptr %10, align 4
  %34 = getelementptr inbounds nuw %struct.PaStreamParameters, ptr %12, i32 0, i32 0
  store i32 %33, ptr %34, align 8
  %35 = load ptr, ptr %5, align 8
  %36 = getelementptr inbounds nuw %struct.PaStreamParameters, ptr %35, i32 0, i32 1
  %37 = load i32, ptr %36, align 4
  %38 = getelementptr inbounds nuw %struct.PaStreamParameters, ptr %12, i32 0, i32 1
  store i32 %37, ptr %38, align 4
  %39 = load ptr, ptr %5, align 8
  %40 = getelementptr inbounds nuw %struct.PaStreamParameters, ptr %39, i32 0, i32 2
  %41 = load i64, ptr %40, align 8
  %42 = getelementptr inbounds nuw %struct.PaStreamParameters, ptr %12, i32 0, i32 2
  store i64 %41, ptr %42, align 8
  %43 = load ptr, ptr %5, align 8
  %44 = getelementptr inbounds nuw %struct.PaStreamParameters, ptr %43, i32 0, i32 3
  %45 = load double, ptr %44, align 8
  %46 = getelementptr inbounds nuw %struct.PaStreamParameters, ptr %12, i32 0, i32 3
  store double %45, ptr %46, align 8
  %47 = load ptr, ptr %5, align 8
  %48 = getelementptr inbounds nuw %struct.PaStreamParameters, ptr %47, i32 0, i32 4
  %49 = load ptr, ptr %48, align 8
  %50 = getelementptr inbounds nuw %struct.PaStreamParameters, ptr %12, i32 0, i32 4
  store ptr %49, ptr %50, align 8
  store ptr %12, ptr %14, align 8
  br label %52

51:                                               ; preds = %29
  store ptr null, ptr %14, align 8
  br label %52

52:                                               ; preds = %51, %32
  %53 = load ptr, ptr %6, align 8
  %54 = icmp ne ptr %53, null
  br i1 %54, label %55, label %74

55:                                               ; preds = %52
  %56 = load i32, ptr %11, align 4
  %57 = getelementptr inbounds nuw %struct.PaStreamParameters, ptr %13, i32 0, i32 0
  store i32 %56, ptr %57, align 8
  %58 = load ptr, ptr %6, align 8
  %59 = getelementptr inbounds nuw %struct.PaStreamParameters, ptr %58, i32 0, i32 1
  %60 = load i32, ptr %59, align 4
  %61 = getelementptr inbounds nuw %struct.PaStreamParameters, ptr %13, i32 0, i32 1
  store i32 %60, ptr %61, align 4
  %62 = load ptr, ptr %6, align 8
  %63 = getelementptr inbounds nuw %struct.PaStreamParameters, ptr %62, i32 0, i32 2
  %64 = load i64, ptr %63, align 8
  %65 = getelementptr inbounds nuw %struct.PaStreamParameters, ptr %13, i32 0, i32 2
  store i64 %64, ptr %65, align 8
  %66 = load ptr, ptr %6, align 8
  %67 = getelementptr inbounds nuw %struct.PaStreamParameters, ptr %66, i32 0, i32 3
  %68 = load double, ptr %67, align 8
  %69 = getelementptr inbounds nuw %struct.PaStreamParameters, ptr %13, i32 0, i32 3
  store double %68, ptr %69, align 8
  %70 = load ptr, ptr %6, align 8
  %71 = getelementptr inbounds nuw %struct.PaStreamParameters, ptr %70, i32 0, i32 4
  %72 = load ptr, ptr %71, align 8
  %73 = getelementptr inbounds nuw %struct.PaStreamParameters, ptr %13, i32 0, i32 4
  store ptr %72, ptr %73, align 8
  store ptr %13, ptr %15, align 8
  br label %75

74:                                               ; preds = %52
  store ptr null, ptr %15, align 8
  br label %75

75:                                               ; preds = %74, %55
  %76 = load ptr, ptr %9, align 8
  %77 = getelementptr inbounds nuw %struct.PaUtilHostApiRepresentation, ptr %76, i32 0, i32 5
  %78 = load ptr, ptr %77, align 8
  %79 = load ptr, ptr %9, align 8
  %80 = load ptr, ptr %14, align 8
  %81 = load ptr, ptr %15, align 8
  %82 = load double, ptr %7, align 8
  %83 = call i32 %78(ptr noundef %79, ptr noundef %80, ptr noundef %81, double noundef %82)
  store i32 %83, ptr %8, align 4
  %84 = load i32, ptr %8, align 4
  store i32 %84, ptr %4, align 4
  br label %85

85:                                               ; preds = %75, %27, %18
  %86 = load i32, ptr %4, align 4
  ret i32 %86
}