; Function Attrs: nounwind uwtable
define i32 @Pa_IsFormatSupported(ptr noundef %0, ptr noundef %1, double noundef %2) local_unnamed_addr #3 {
  %4 = alloca ptr, align 8
  %5 = alloca i32, align 4
  %6 = alloca i32, align 4
  %7 = alloca %struct.PaStreamParameters, align 8
  %8 = alloca %struct.PaStreamParameters, align 8
  store ptr null, ptr %4, align 8
  store i32 -1, ptr %5, align 4
  store i32 -1, ptr %6, align 4
  %9 = load i32, ptr @initializationCount_, align 4
  %.not = icmp eq i32 %9, 0
  br i1 %.not, label %47, label %10

10:                                               ; preds = %3
  %11 = call fastcc i32 @ValidateOpenStreamParameters(ptr noundef %0, ptr noundef %1, double noundef %2, i64 noundef 0, i64 noundef 0, ptr noundef null, ptr noundef nonnull %4, ptr noundef nonnull %5, ptr noundef nonnull %6)
  %.not25 = icmp eq i32 %11, 0
  br i1 %.not25, label %12, label %47

12:                                               ; preds = %10
  %.not26 = icmp eq ptr %0, null
  br i1 %.not26, label %27, label %13

13:                                               ; preds = %12
  %14 = load i32, ptr %5, align 4
  store i32 %14, ptr %7, align 8
  %15 = getelementptr inbounds nuw i8, ptr %0, i64 4
  %16 = load i32, ptr %15, align 4
  %17 = getelementptr inbounds nuw i8, ptr %7, i64 4
  store i32 %16, ptr %17, align 4
  %18 = getelementptr inbounds nuw i8, ptr %0, i64 8
  %19 = load i64, ptr %18, align 8
  %20 = getelementptr inbounds nuw i8, ptr %7, i64 8
  store i64 %19, ptr %20, align 8
  %21 = getelementptr inbounds nuw i8, ptr %0, i64 16
  %22 = load double, ptr %21, align 8
  %23 = getelementptr inbounds nuw i8, ptr %7, i64 16
  store double %22, ptr %23, align 8
  %24 = getelementptr inbounds nuw i8, ptr %0, i64 24
  %25 = load ptr, ptr %24, align 8
  %26 = getelementptr inbounds nuw i8, ptr %7, i64 24
  store ptr %25, ptr %26, align 8
  br label %27

27:                                               ; preds = %12, %13
  %.020 = phi ptr [ %7, %13 ], [ null, %12 ]
  %.not27 = icmp eq ptr %1, null
  br i1 %.not27, label %42, label %28

28:                                               ; preds = %27
  %29 = load i32, ptr %6, align 4
  store i32 %29, ptr %8, align 8
  %30 = getelementptr inbounds nuw i8, ptr %1, i64 4
  %31 = load i32, ptr %30, align 4
  %32 = getelementptr inbounds nuw i8, ptr %8, i64 4
  store i32 %31, ptr %32, align 4
  %33 = getelementptr inbounds nuw i8, ptr %1, i64 8
  %34 = load i64, ptr %33, align 8
  %35 = getelementptr inbounds nuw i8, ptr %8, i64 8
  store i64 %34, ptr %35, align 8
  %36 = getelementptr inbounds nuw i8, ptr %1, i64 16
  %37 = load double, ptr %36, align 8
  %38 = getelementptr inbounds nuw i8, ptr %8, i64 16
  store double %37, ptr %38, align 8
  %39 = getelementptr inbounds nuw i8, ptr %1, i64 24
  %40 = load ptr, ptr %39, align 8
  %41 = getelementptr inbounds nuw i8, ptr %8, i64 24
  store ptr %40, ptr %41, align 8
  br label %42

42:                                               ; preds = %27, %28
  %.0 = phi ptr [ %8, %28 ], [ null, %27 ]
  %43 = load ptr, ptr %4, align 8
  %44 = getelementptr inbounds nuw i8, ptr %43, i64 64
  %45 = load ptr, ptr %44, align 8
  %46 = call i32 %45(ptr noundef %43, ptr noundef %.020, ptr noundef %.0, double noundef %2) #12
  br label %47

47:                                               ; preds = %10, %3, %42
  %.021 = phi i32 [ %46, %42 ], [ -10000, %3 ], [ %11, %10 ]
  ret i32 %.021
}